target datalayout = "e-m:e-p270:32:32-p271:32:32-p272:64:64-i64:64-i128:128-f80:128-n8:16:32:64-S128"
target triple = "x86_64-unknown-linux-gnu"

%"class.q::queue" = type { ptr, ptr, ptr, ptr, %"struct.q::queue::stats", %class.obj_ref, %class.obj_ref, %class.cost_parser, %class.cost_evaluator, %class.cached_var_subst, %class.svector.30, double, %class.svector.32, %class.svector.32 }
%"struct.q::queue::stats" = type { i32, i32 }
%class.obj_ref = type { ptr, ptr }
%class.cost_parser = type { %class.simple_parser, %class.arith_util, %class.ref_vector.4 }
%class.simple_parser = type { ptr, ptr, %class.map, %class.map.0, %class.ref_vector }
%class.map = type { %class.table2map }
%class.table2map = type { %class.core_hashtable }
%class.core_hashtable = type <{ ptr, i32, i32, i32, [4 x i8] }>
%class.map.0 = type { %class.table2map.1 }
%class.table2map.1 = type { %class.core_hashtable.2 }
%class.core_hashtable.2 = type <{ ptr, i32, i32, i32, [4 x i8] }>
%class.ref_vector = type { %class.ref_vector_core }
%class.ref_vector_core = type { %class.ref_manager_wrapper, %class.ptr_vector }
%class.ref_manager_wrapper = type { ptr }
%class.ptr_vector = type { %class.vector }
%class.vector = type { ptr }
%class.arith_util = type { ptr, ptr }
%class.ref_vector.4 = type { %class.ref_vector_core.5 }
%class.ref_vector_core.5 = type { %class.ref_manager_wrapper.6, %class.ptr_vector.7 }
%class.ref_manager_wrapper.6 = type { ptr }
%class.ptr_vector.7 = type { %class.vector.8 }
%class.vector.8 = type { ptr }
%class.cost_evaluator = type { ptr, %class.arith_util, i32, ptr }
%class.cached_var_subst = type { ptr, %class.var_subst, %class.ref_vector, %class.map.24, %class.region, %class.ptr_vector.28, ptr }
%class.var_subst = type { %class.beta_reducer, i8, [7 x i8] }
%class.beta_reducer = type <{ %class.rewriter_tpl, %struct.beta_reducer_cfg, [7 x i8] }>
%class.rewriter_tpl = type { %class.rewriter_core, ptr, i32, %class.ptr_vector, %class.var_shifter, %class.inv_var_shifter, %class.obj_ref, %class.obj_ref.21, %class.obj_ref.21, %class.svector.22 }
%class.rewriter_core = type { ptr, ptr, i8, i8, %class.ptr_vector.9, ptr, %class.svector, %class.ref_vector, %class.ptr_vector.9, ptr, %class.ref_vector.12, %class.obj_hashtable, ptr, i32, %class.svector.19 }
%class.svector = type { %class.vector.11 }
%class.vector.11 = type { ptr }
%class.ptr_vector.9 = type { %class.vector.10 }
%class.vector.10 = type { ptr }
%class.ref_vector.12 = type { %class.ref_vector_core.13 }
%class.ref_vector_core.13 = type { %class.ref_manager_wrapper.14, %class.ptr_vector.15 }
%class.ref_manager_wrapper.14 = type { ptr }
%class.ptr_vector.15 = type { %class.vector.16 }
%class.vector.16 = type { ptr }
%class.obj_hashtable = type { %class.core_hashtable.base.18, [4 x i8] }
%class.core_hashtable.base.18 = type <{ ptr, i32, i32, i32 }>
%class.svector.19 = type { %class.vector.20 }
%class.vector.20 = type { ptr }
%class.var_shifter = type <{ %class.var_shifter_core, i32, i32, i32, [4 x i8] }>
%class.var_shifter_core = type { %class.rewriter_core }
%class.inv_var_shifter = type <{ %class.var_shifter_core, i32, [4 x i8] }>
%class.obj_ref.21 = type { ptr, ptr }
%class.svector.22 = type { %class.vector.23 }
%class.vector.23 = type { ptr }
%struct.beta_reducer_cfg = type { i8 }
%class.map.24 = type { %class.table2map.25 }
%class.table2map.25 = type { %class.core_hashtable.26 }
%class.core_hashtable.26 = type <{ ptr, i32, i32, i32, [4 x i8] }>
%class.region = type { ptr, ptr, ptr, ptr, ptr }
%class.ptr_vector.28 = type { %class.vector.29 }
%class.vector.29 = type { ptr }
%class.svector.30 = type { %class.vector.31 }
%class.vector.31 = type { ptr }
%class.svector.32 = type { %class.vector.33 }
%class.vector.33 = type { ptr }
%struct.qi_params = type { %"class.std::__cxx11::basic_string", %"class.std::__cxx11::basic_string", double, double, i32, i32, i8, i32, i32, i8, i8, i32, i8, i8, i8, i8, i32, i32, i32, i8, i32, ptr }
%"class.std::__cxx11::basic_string" = type { %"struct.std::__cxx11::basic_string<char>::_Alloc_hider", i64, %union.anon }
%"struct.std::__cxx11::basic_string<char>::_Alloc_hider" = type { ptr }
%union.anon = type { i64, [8 x i8] }

@.str = private unnamed_addr constant [53 x i8] c"invalid cost function '%s', switching to default one\00", align 1
@.str.2 = private unnamed_addr constant [22 x i8] c"(+ weight generation)\00", align 1
@.str.3 = private unnamed_addr constant [107 x i8] c"generated/home/dtcxzyw/WorkSpace/Projects/compilers/llvm-opt-benchmark/bench/z3/z3/src/sat/smt/q_queue.cpp\00", align 1
@.str.4 = private unnamed_addr constant [83 x i8] c"Failed to verify: m_parser.parse_string(\22(+ weight generation)\22, m_cost_function)\0A\00", align 1
@.str.5 = private unnamed_addr constant [56 x i8] c"invalid new_gen function '%s', switching to default one\00", align 1
@.str.6 = private unnamed_addr constant [5 x i8] c"cost\00", align 1
@.str.7 = private unnamed_addr constant [69 x i8] c"Failed to verify: m_parser.parse_string(\22cost\22, m_new_gen_function)\0A\00", align 1

; Function Attrs: mustprogress uwtable
define hidden void @_ZN1q5queue5setupEv(ptr noundef nonnull align 8 dereferenceable(912) %this) #5 align 2 {
entry:
  %this.addr = alloca ptr, align 8
  store ptr %this, ptr %this.addr, align 8
  %this1 = load ptr, ptr %this.addr, align 8
  %m_parser = getelementptr inbounds %"class.q::queue", ptr %this1, i32 0, i32 7
  %m_params = getelementptr inbounds %"class.q::queue", ptr %this1, i32 0, i32 3
  %0 = load ptr, ptr %m_params, align 8
  %m_qi_cost = getelementptr inbounds %struct.qi_params, ptr %0, i32 0, i32 0
  %call = call noundef ptr @_ZNKSt7__cxx1112basic_stringIcSt11char_traitsIcESaIcEE5c_strEv(ptr noundef nonnull align 8 dereferenceable(32) %m_qi_cost) #3
  %m_cost_function = getelementptr inbounds %"class.q::queue", ptr %this1, i32 0, i32 5
  %call2 = call noundef zeroext i1 @_ZN13simple_parser12parse_stringEPKcR7obj_refI4expr11ast_managerE(ptr noundef nonnull align 8 dereferenceable(80) %m_parser, ptr noundef %call, ptr noundef nonnull align 8 dereferenceable(16) %m_cost_function)
  br i1 %call2, label %if.end10, label %if.then

if.then:                                          ; preds = %entry
  %m_params3 = getelementptr inbounds %"class.q::queue", ptr %this1, i32 0, i32 3
  %1 = load ptr, ptr %m_params3, align 8
  %m_qi_cost4 = getelementptr inbounds %struct.qi_params, ptr %1, i32 0, i32 0
  %call5 = call noundef ptr @_ZNKSt7__cxx1112basic_stringIcSt11char_traitsIcESaIcEE5c_strEv(ptr noundef nonnull align 8 dereferenceable(32) %m_qi_cost4) #3
  call void (ptr, ...) @_Z11warning_msgPKcz(ptr noundef @.str, ptr noundef %call5)
  %m_parser6 = getelementptr inbounds %"class.q::queue", ptr %this1, i32 0, i32 7
  %m_cost_function7 = getelementptr inbounds %"class.q::queue", ptr %this1, i32 0, i32 5
  %call8 = call noundef zeroext i1 @_ZN13simple_parser12parse_stringEPKcR7obj_refI4expr11ast_managerE(ptr noundef nonnull align 8 dereferenceable(80) %m_parser6, ptr noundef @.str.2, ptr noundef nonnull align 8 dereferenceable(16) %m_cost_function7)
  br i1 %call8, label %if.end, label %if.then9

if.then9:                                         ; preds = %if.then
  call void @_Z26notify_assertion_violationPKciS0_(ptr noundef @.str.3, i32 noundef 47, ptr noundef @.str.4)
  call void @exit(i32 noundef 114) #13
  unreachable

if.end:                                           ; preds = %if.then
  br label %if.end10

if.end10:                                         ; preds = %if.end, %entry
  %m_parser11 = getelementptr inbounds %"class.q::queue", ptr %this1, i32 0, i32 7
  %m_params12 = getelementptr inbounds %"class.q::queue", ptr %this1, i32 0, i32 3
  %2 = load ptr, ptr %m_params12, align 8
  %m_qi_new_gen = getelementptr inbounds %struct.qi_params, ptr %2, i32 0, i32 1
  %call13 = call noundef ptr @_ZNKSt7__cxx1112basic_stringIcSt11char_traitsIcESaIcEE5c_strEv(ptr noundef nonnull align 8 dereferenceable(32) %m_qi_new_gen) #3
  %m_new_gen_function = getelementptr inbounds %"class.q::queue", ptr %this1, i32 0, i32 6
  %call14 = call noundef zeroext i1 @_ZN13simple_parser12parse_stringEPKcR7obj_refI4expr11ast_managerE(ptr noundef nonnull align 8 dereferenceable(80) %m_parser11, ptr noundef %call13, ptr noundef nonnull align 8 dereferenceable(16) %m_new_gen_function)
  br i1 %call14, label %if.end24, label %if.then15

if.then15:                                        ; preds = %if.end10
  %m_params16 = getelementptr inbounds %"class.q::queue", ptr %this1, i32 0, i32 3
  %3 = load ptr, ptr %m_params16, align 8
  %m_qi_new_gen17 = getelementptr inbounds %struct.qi_params, ptr %3, i32 0, i32 1
  %call18 = call noundef ptr @_ZNKSt7__cxx1112basic_stringIcSt11char_traitsIcESaIcEE5c_strEv(ptr noundef nonnull align 8 dereferenceable(32) %m_qi_new_gen17) #3
  call void (ptr, ...) @_Z11warning_msgPKcz(ptr noundef @.str.5, ptr noundef %call18)
  %m_parser19 = getelementptr inbounds %"class.q::queue", ptr %this1, i32 0, i32 7
  %m_new_gen_function20 = getelementptr inbounds %"class.q::queue", ptr %this1, i32 0, i32 6
  %call21 = call noundef zeroext i1 @_ZN13simple_parser12parse_stringEPKcR7obj_refI4expr11ast_managerE(ptr noundef nonnull align 8 dereferenceable(80) %m_parser19, ptr noundef @.str.6, ptr noundef nonnull align 8 dereferenceable(16) %m_new_gen_function20)
  br i1 %call21, label %if.end23, label %if.then22

if.then22:                                        ; preds = %if.then15
  call void @_Z26notify_assertion_violationPKciS0_(ptr noundef @.str.3, i32 noundef 51, ptr noundef @.str.7)
  call void @exit(i32 noundef 114) #13
  unreachable

if.end23:                                         ; preds = %if.then15
  br label %if.end24

if.end24:                                         ; preds = %if.end23, %if.end10
  %m_params25 = getelementptr inbounds %"class.q::queue", ptr %this1, i32 0, i32 3
  %4 = load ptr, ptr %m_params25, align 8
  %m_qi_eager_threshold = getelementptr inbounds %struct.qi_params, ptr %4, i32 0, i32 2
  %5 = load double, ptr %m_qi_eager_threshold, align 8
  %m_eager_cost_threshold = getelementptr inbounds %"class.q::queue", ptr %this1, i32 0, i32 11
  store double %5, ptr %m_eager_cost_threshold, align 8
  ret void
}