; Function Attrs: mustprogress uwtable
define hidden void @_ZN1q5queue5setupEv(ptr noundef nonnull align 8 dereferenceable(912) %this) local_unnamed_addr #3 align 2 {
entry:
  %m_parser = getelementptr inbounds i8, ptr %this, i64 72
  %m_params = getelementptr inbounds i8, ptr %this, i64 24
  %0 = load ptr, ptr %m_params, align 8
  %call = tail call noundef ptr @_ZNKSt7__cxx1112basic_stringIcSt11char_traitsIcESaIcEE5c_strEv(ptr noundef nonnull align 8 dereferenceable(32) %0) #15
  %m_cost_function = getelementptr inbounds i8, ptr %this, i64 40
  %call2 = tail call noundef zeroext i1 @_ZN13simple_parser12parse_stringEPKcR7obj_refI4expr11ast_managerE(ptr noundef nonnull align 8 dereferenceable(80) %m_parser, ptr noundef %call, ptr noundef nonnull align 8 dereferenceable(16) %m_cost_function)
  br i1 %call2, label %if.end10, label %if.then

if.then:                                          ; preds = %entry
  %1 = load ptr, ptr %m_params, align 8
  %call5 = tail call noundef ptr @_ZNKSt7__cxx1112basic_stringIcSt11char_traitsIcESaIcEE5c_strEv(ptr noundef nonnull align 8 dereferenceable(32) %1) #15
  tail call void (ptr, ...) @_Z11warning_msgPKcz(ptr noundef nonnull @.str, ptr noundef %call5)
  %call8 = tail call noundef zeroext i1 @_ZN13simple_parser12parse_stringEPKcR7obj_refI4expr11ast_managerE(ptr noundef nonnull align 8 dereferenceable(80) %m_parser, ptr noundef nonnull @.str.2, ptr noundef nonnull align 8 dereferenceable(16) %m_cost_function)
  br i1 %call8, label %if.end10, label %if.then9

if.then9:                                         ; preds = %if.then
  tail call void @_Z26notify_assertion_violationPKciS0_(ptr noundef nonnull @.str.3, i32 noundef 47, ptr noundef nonnull @.str.4)
  tail call void @exit(i32 noundef 114) #16
  unreachable

if.end10:                                         ; preds = %if.then, %entry
  %2 = load ptr, ptr %m_params, align 8
  %m_qi_new_gen = getelementptr inbounds i8, ptr %2, i64 32
  %call13 = tail call noundef ptr @_ZNKSt7__cxx1112basic_stringIcSt11char_traitsIcESaIcEE5c_strEv(ptr noundef nonnull align 8 dereferenceable(32) %m_qi_new_gen) #15
  %m_new_gen_function = getelementptr inbounds i8, ptr %this, i64 56
  %call14 = tail call noundef zeroext i1 @_ZN13simple_parser12parse_stringEPKcR7obj_refI4expr11ast_managerE(ptr noundef nonnull align 8 dereferenceable(80) %m_parser, ptr noundef %call13, ptr noundef nonnull align 8 dereferenceable(16) %m_new_gen_function)
  br i1 %call14, label %if.end24, label %if.then15

if.then15:                                        ; preds = %if.end10
  %3 = load ptr, ptr %m_params, align 8
  %m_qi_new_gen17 = getelementptr inbounds i8, ptr %3, i64 32
  %call18 = tail call noundef ptr @_ZNKSt7__cxx1112basic_stringIcSt11char_traitsIcESaIcEE5c_strEv(ptr noundef nonnull align 8 dereferenceable(32) %m_qi_new_gen17) #15
  tail call void (ptr, ...) @_Z11warning_msgPKcz(ptr noundef nonnull @.str.5, ptr noundef %call18)
  %call21 = tail call noundef zeroext i1 @_ZN13simple_parser12parse_stringEPKcR7obj_refI4expr11ast_managerE(ptr noundef nonnull align 8 dereferenceable(80) %m_parser, ptr noundef nonnull @.str.6, ptr noundef nonnull align 8 dereferenceable(16) %m_new_gen_function)
  br i1 %call21, label %if.end24, label %if.then22

if.then22:                                        ; preds = %if.then15
  tail call void @_Z26notify_assertion_violationPKciS0_(ptr noundef nonnull @.str.3, i32 noundef 51, ptr noundef nonnull @.str.7)
  tail call void @exit(i32 noundef 114) #16
  unreachable

if.end24:                                         ; preds = %if.then15, %if.end10
  %4 = load ptr, ptr %m_params, align 8
  %m_qi_eager_threshold = getelementptr inbounds i8, ptr %4, i64 64
  %5 = load double, ptr %m_qi_eager_threshold, align 8
  %m_eager_cost_threshold = getelementptr inbounds i8, ptr %this, i64 888
  store double %5, ptr %m_eager_cost_threshold, align 8
  ret void
}